; ModuleID = '54/1137.c'
source_filename = "54/1137.c"
target datalayout = "e-m:e-p270:32:32-p271:32:32-p272:64:64-i64:64-f80:128-n8:16:32:64-S128"
target triple = "x86_64-pc-linux-gnu"

@.str = private unnamed_addr constant [6 x i8] c"%d %d\00", align 1
@.str.1 = private unnamed_addr constant [4 x i8] c"%d\0A\00", align 1

; Function Attrs: noinline nounwind uwtable
define dso_local i32 @main(i32 %0, i8** %1) #0 {
  %3 = alloca i32, align 4
  %4 = alloca i32, align 4
  %5 = alloca i8**, align 8
  %6 = alloca i32, align 4
  %7 = alloca i32, align 4
  %8 = alloca i32, align 4
  %9 = alloca i32, align 4
  %10 = alloca i32, align 4
  %11 = alloca i32, align 4
  store i32 0, i32* %3, align 4
  store i32 %0, i32* %4, align 4
  store i8** %1, i8*** %5, align 8
  %12 = call i32 (i8*, ...) @__isoc99_scanf(i8* getelementptr inbounds ([6 x i8], [6 x i8]* @.str, i64 0, i64 0), i32* %6, i32* %7)
  store i32 1, i32* %10, align 4
  br label %13

13:                                               ; preds = %2, %58
  store i32 0, i32* %11, align 4
  %14 = load i32, i32* %10, align 4
  store i32 %14, i32* %9, align 4
  store i32 0, i32* %8, align 4
  br label %15

15:                                               ; preds = %45, %13
  %16 = load i32, i32* %8, align 4
  %17 = load i32, i32* %6, align 4
  %18 = icmp slt i32 %16, %17
  br i1 %18, label %19, label %48

19:                                               ; preds = %15
  %20 = load i32, i32* %9, align 4
  %21 = load i32, i32* %6, align 4
  %22 = srem i32 %20, %21
  %23 = load i32, i32* %7, align 4
  %24 = icmp eq i32 %22, %23
  br i1 %24, label %25, label %43

25:                                               ; preds = %19
  %26 = load i32, i32* %9, align 4
  %27 = load i32, i32* %7, align 4
  %28 = sub nsw i32 %26, %27
  %29 = load i32, i32* %6, align 4
  %30 = sdiv i32 %28, %29
  %31 = icmp sge i32 %30, 1
  br i1 %31, label %32, label %43

32:                                               ; preds = %25
  %33 = load i32, i32* %11, align 4
  %34 = add nsw i32 %33, 1
  store i32 %34, i32* %11, align 4
  %35 = load i32, i32* %9, align 4
  %36 = load i32, i32* %7, align 4
  %37 = sub nsw i32 %35, %36
  %38 = load i32, i32* %6, align 4
  %39 = sub nsw i32 %38, 1
  %40 = mul nsw i32 %37, %39
  %41 = load i32, i32* %6, align 4
  %42 = sdiv i32 %40, %41
  store i32 %42, i32* %9, align 4
  br label %44

43:                                               ; preds = %25, %19
  br label %48

44:                                               ; preds = %32
  br label %45

45:                                               ; preds = %44
  %46 = load i32, i32* %8, align 4
  %47 = add nsw i32 %46, 1
  store i32 %47, i32* %8, align 4
  br label %15

48:                                               ; preds = %43, %15
  %49 = load i32, i32* %11, align 4
  %50 = load i32, i32* %6, align 4
  %51 = icmp eq i32 %49, %50
  br i1 %51, label %52, label %55

52:                                               ; preds = %48
  %53 = load i32, i32* %10, align 4
  %54 = call i32 (i8*, ...) @printf(i8* getelementptr inbounds ([4 x i8], [4 x i8]* @.str.1, i64 0, i64 0), i32 %53)
  br label %59

55:                                               ; preds = %48
  %56 = load i32, i32* %10, align 4
  %57 = add nsw i32 %56, 1
  store i32 %57, i32* %10, align 4
  br label %58

58:                                               ; preds = %55
  br label %13

59:                                               ; preds = %52
  ret i32 0
}

declare dso_local i32 @__isoc99_scanf(i8*, ...) #1

declare dso_local i32 @printf(i8*, ...) #1


!llvm.module.flags = !{!0}
!llvm.ident = !{!1}

!0 = !{i32 1, !"wchar_size", i32 4}
!1 = !{!"clang version 10.0.0-4ubuntu1 "}
